; Function Attrs: mustprogress uwtable
define hidden noundef i32 @_ZN4cvc56parser9Smt2State17getProofComponentERKNSt7__cxx1112basic_stringIcSt11char_traitsIcESaIcEEE(ptr noundef nonnull align 8 dereferenceable(512) %this, ptr noundef nonnull align 8 dereferenceable(32) %pc) local_unnamed_addr #3 align 2 personality ptr @__gxx_personality_v0 {
entry:
  %ref.tmp = alloca %"class.std::__cxx11::basic_string", align 8
  %ref.tmp17 = alloca %"class.std::__cxx11::basic_string", align 8
  %ref.tmp18 = alloca %"class.std::__cxx11::basic_string", align 8
  %ref.tmp19 = alloca %"class.std::allocator.11", align 1
  %call.i = tail call noundef i32 @_ZNKSt7__cxx1112basic_stringIcSt11char_traitsIcESaIcEE7compareEPKc(ptr noundef nonnull align 8 dereferenceable(32) %pc, ptr noundef nonnull @.str.198) #19
  %cmp.i = icmp eq i32 %call.i, 0
  br i1 %cmp.i, label %return, label %if.else

if.else:                                          ; preds = %entry
  %call.i9 = tail call noundef i32 @_ZNKSt7__cxx1112basic_stringIcSt11char_traitsIcESaIcEE7compareEPKc(ptr noundef nonnull align 8 dereferenceable(32) %pc, ptr noundef nonnull @.str.192) #19
  %cmp.i10 = icmp eq i32 %call.i9, 0
  br i1 %cmp.i10, label %return, label %if.else4

if.else4:                                         ; preds = %if.else
  %call.i11 = tail call noundef i32 @_ZNKSt7__cxx1112basic_stringIcSt11char_traitsIcESaIcEE7compareEPKc(ptr noundef nonnull align 8 dereferenceable(32) %pc, ptr noundef nonnull @.str.199) #19
  %cmp.i12 = icmp eq i32 %call.i11, 0
  br i1 %cmp.i12, label %return, label %if.else7

if.else7:                                         ; preds = %if.else4
  %call.i13 = tail call noundef i32 @_ZNKSt7__cxx1112basic_stringIcSt11char_traitsIcESaIcEE7compareEPKc(ptr noundef nonnull align 8 dereferenceable(32) %pc, ptr noundef nonnull @.str.200) #19
  %cmp.i14 = icmp eq i32 %call.i13, 0
  br i1 %cmp.i14, label %return, label %if.else10

if.else10:                                        ; preds = %if.else7
  %call.i15 = tail call noundef i32 @_ZNKSt7__cxx1112basic_stringIcSt11char_traitsIcESaIcEE7compareEPKc(ptr noundef nonnull align 8 dereferenceable(32) %pc, ptr noundef nonnull @.str.201) #19
  %cmp.i16 = icmp eq i32 %call.i15, 0
  br i1 %cmp.i16, label %return, label %if.end16

if.end16:                                         ; preds = %if.else10
  call void @_ZNSaIcEC1Ev(ptr noundef nonnull align 1 dereferenceable(1) %ref.tmp19) #19
  %call.i1718 = invoke noundef ptr @_ZNSt7__cxx1112basic_stringIcSt11char_traitsIcESaIcEE13_M_local_dataEv(ptr noundef nonnull align 8 dereferenceable(32) %ref.tmp18)
          to label %call.i17.noexc unwind label %lpad

call.i17.noexc:                                   ; preds = %if.end16
  invoke void @_ZNSt7__cxx1112basic_stringIcSt11char_traitsIcESaIcEE12_Alloc_hiderC1EPcRKS3_(ptr noundef nonnull align 8 dereferenceable(8) %ref.tmp18, ptr noundef %call.i1718, ptr noundef nonnull align 1 dereferenceable(1) %ref.tmp19)
          to label %.noexc unwind label %lpad

.noexc:                                           ; preds = %call.i17.noexc
  invoke void @_ZNSt7__cxx1112basic_stringIcSt11char_traitsIcESaIcEE12_M_constructIPKcEEvT_S8_St20forward_iterator_tag(ptr noundef nonnull align 8 dereferenceable(32) %ref.tmp18, ptr noundef nonnull @.str.202, ptr noundef nonnull getelementptr inbounds ([26 x i8], ptr @.str.202, i64 0, i64 25))
          to label %invoke.cont unwind label %lpad.i

lpad.i:                                           ; preds = %.noexc
  %0 = landingpad { ptr, i32 }
          cleanup
  call void @_ZNSaIcED2Ev(ptr noundef nonnull align 1 dereferenceable(1) %ref.tmp18) #19
  br label %ehcleanup27

invoke.cont:                                      ; preds = %.noexc
  %call.i1920 = invoke noundef nonnull align 8 dereferenceable(32) ptr @_ZNSt7__cxx1112basic_stringIcSt11char_traitsIcESaIcEE6appendERKS4_(ptr noundef nonnull align 8 dereferenceable(32) %ref.tmp18, ptr noundef nonnull align 8 dereferenceable(32) %pc)
          to label %invoke.cont21 unwind label %lpad20

invoke.cont21:                                    ; preds = %invoke.cont
  call void @_ZNSt7__cxx1112basic_stringIcSt11char_traitsIcESaIcEEC1EOS4_(ptr noundef nonnull align 8 dereferenceable(32) %ref.tmp17, ptr noundef nonnull align 8 dereferenceable(32) %call.i1920) #19
  %call.i2122 = invoke noundef nonnull align 8 dereferenceable(32) ptr @_ZNSt7__cxx1112basic_stringIcSt11char_traitsIcESaIcEE6appendEPKc(ptr noundef nonnull align 8 dereferenceable(32) %ref.tmp17, ptr noundef nonnull @.str.190)
          to label %invoke.cont23 unwind label %lpad22

invoke.cont23:                                    ; preds = %invoke.cont21
  call void @_ZNSt7__cxx1112basic_stringIcSt11char_traitsIcESaIcEEC1EOS4_(ptr noundef nonnull align 8 dereferenceable(32) %ref.tmp, ptr noundef nonnull align 8 dereferenceable(32) %call.i2122) #19
  invoke void @_ZN4cvc56parser11ParserState10parseErrorERKNSt7__cxx1112basic_stringIcSt11char_traitsIcESaIcEEE(ptr noundef nonnull align 8 dereferenceable(168) %this, ptr noundef nonnull align 8 dereferenceable(32) %ref.tmp)
          to label %invoke.cont25 unwind label %lpad24

invoke.cont25:                                    ; preds = %invoke.cont23
  call void @_ZNSt7__cxx1112basic_stringIcSt11char_traitsIcESaIcEED1Ev(ptr noundef nonnull align 8 dereferenceable(32) %ref.tmp) #19
  call void @_ZNSt7__cxx1112basic_stringIcSt11char_traitsIcESaIcEED1Ev(ptr noundef nonnull align 8 dereferenceable(32) %ref.tmp17) #19
  call void @_ZNSt7__cxx1112basic_stringIcSt11char_traitsIcESaIcEED1Ev(ptr noundef nonnull align 8 dereferenceable(32) %ref.tmp18) #19
  call void @_ZNSaIcED1Ev(ptr noundef nonnull align 1 dereferenceable(1) %ref.tmp19) #19
  br label %return

lpad:                                             ; preds = %call.i17.noexc, %if.end16
  %1 = landingpad { ptr, i32 }
          cleanup
  br label %ehcleanup27

lpad20:                                           ; preds = %invoke.cont
  %2 = landingpad { ptr, i32 }
          cleanup
  br label %ehcleanup26

lpad22:                                           ; preds = %invoke.cont21
  %3 = landingpad { ptr, i32 }
          cleanup
  br label %ehcleanup

lpad24:                                           ; preds = %invoke.cont23
  %4 = landingpad { ptr, i32 }
          cleanup
  call void @_ZNSt7__cxx1112basic_stringIcSt11char_traitsIcESaIcEED1Ev(ptr noundef nonnull align 8 dereferenceable(32) %ref.tmp) #19
  br label %ehcleanup

ehcleanup:                                        ; preds = %lpad24, %lpad22
  %.pn = phi { ptr, i32 } [ %4, %lpad24 ], [ %3, %lpad22 ]
  call void @_ZNSt7__cxx1112basic_stringIcSt11char_traitsIcESaIcEED1Ev(ptr noundef nonnull align 8 dereferenceable(32) %ref.tmp17) #19
  br label %ehcleanup26

ehcleanup26:                                      ; preds = %ehcleanup, %lpad20
  %.pn.pn = phi { ptr, i32 } [ %.pn, %ehcleanup ], [ %2, %lpad20 ]
  call void @_ZNSt7__cxx1112basic_stringIcSt11char_traitsIcESaIcEED1Ev(ptr noundef nonnull align 8 dereferenceable(32) %ref.tmp18) #19
  br label %ehcleanup27

ehcleanup27:                                      ; preds = %lpad, %lpad.i, %ehcleanup26
  %.pn.pn.pn = phi { ptr, i32 } [ %.pn.pn, %ehcleanup26 ], [ %1, %lpad ], [ %0, %lpad.i ]
  call void @_ZNSaIcED1Ev(ptr noundef nonnull align 1 dereferenceable(1) %ref.tmp19) #19
  resume { ptr, i32 } %.pn.pn.pn

return:                                           ; preds = %if.else10, %if.else7, %if.else4, %if.else, %entry, %invoke.cont25
  %retval.0 = phi i32 [ 4, %invoke.cont25 ], [ 0, %entry ], [ 1, %if.else ], [ 2, %if.else4 ], [ 3, %if.else7 ], [ 4, %if.else10 ]
  ret i32 %retval.0
}